; Function Attrs: mustprogress nofree nounwind willreturn memory(read) uwtable
define hidden noundef zeroext i1 @_ZNK4cvc58internal6theory11quantifiers13SygusTypeInfo20isSubclassVarTrivialEv(ptr noundef nonnull readonly align 8 captures(address) dereferenceable(640) %0) local_unnamed_addr #14 align 2 {
  %2 = getelementptr inbounds nuw i8, ptr %0, i64 568
  %3 = load ptr, ptr %2, align 8, !tbaa !18
  %4 = getelementptr inbounds nuw i8, ptr %0, i64 552
  %.not11 = icmp eq ptr %3, %4
  br i1 %.not11, label %._crit_edge, label %.lr.ph

.lr.ph:                                           ; preds = %1, %13
  %.sroa.08.012 = phi ptr [ %14, %13 ], [ %3, %1 ]
  %5 = getelementptr inbounds nuw i8, ptr %.sroa.08.012, i64 40
  %6 = getelementptr inbounds nuw i8, ptr %.sroa.08.012, i64 48
  %7 = load ptr, ptr %6, align 8, !tbaa !147
  %8 = load ptr, ptr %5, align 8, !tbaa !150
  %9 = ptrtoint ptr %7 to i64
  %10 = ptrtoint ptr %8 to i64
  %11 = sub i64 %9, %10
  %12 = icmp ult i64 %11, 9
  br i1 %12, label %13, label %._crit_edge

13:                                               ; preds = %.lr.ph
  %14 = tail call noundef ptr @_ZSt18_Rb_tree_incrementPKSt18_Rb_tree_node_base(ptr noundef nonnull %.sroa.08.012) #33
  %.not = icmp eq ptr %14, %4
  br i1 %.not, label %._crit_edge, label %.lr.ph

._crit_edge:                                      ; preds = %.lr.ph, %13, %1
  %.not.lcssa = phi i1 [ true, %1 ], [ %12, %13 ], [ %12, %.lr.ph ]
  ret i1 %.not.lcssa
}